; Function Attrs: inlinehint nounwind uwtable
define internal fastcc void @update_mono_detection(ptr noundef %0, ptr noundef %1, i32 noundef range(i32 0, 2) %2) unnamed_addr #9 {
  %4 = alloca [128 x i8], align 16
  %5 = alloca [128 x i8], align 16
  %6 = alloca [128 x i8], align 16
  %7 = alloca [32 x i8], align 1
  %8 = alloca [32 x i8], align 1
  %9 = alloca [32 x i8], align 1
  %10 = alloca [32 x i8], align 1
  %11 = alloca [32 x i8], align 1
  %12 = alloca [32 x i8], align 1
  %13 = getelementptr inbounds nuw i8, ptr %0, i64 88
  %14 = load i32, ptr %13, align 8, !tbaa !30
  %15 = icmp eq i32 %14, 0
  %16 = icmp ne i32 %2, 0
  %or.cond = and i1 %16, %15
  br i1 %or.cond, label %17, label %22

17:                                               ; preds = %3
  store i32 1, ptr %13, align 8, !tbaa !30
  %18 = getelementptr inbounds nuw i8, ptr %0, i64 96
  store i32 1, ptr %18, align 8, !tbaa !89
  %19 = getelementptr inbounds nuw i8, ptr %1, i64 136
  %20 = load i64, ptr %19, align 8, !tbaa !76
  %21 = getelementptr inbounds nuw i8, ptr %0, i64 144
  store i64 %20, ptr %21, align 8, !tbaa !31
  br label %22

22:                                               ; preds = %17, %3
  %23 = phi i32 [ 1, %17 ], [ %14, %3 ]
  %24 = icmp ne i32 %23, 0
  %or.cond3 = and i1 %16, %24
  br i1 %or.cond3, label %25, label %45

25:                                               ; preds = %22
  %26 = getelementptr inbounds nuw i8, ptr %0, i64 96
  %27 = load i32, ptr %26, align 8, !tbaa !89
  %.not = icmp eq i32 %27, 0
  br i1 %.not, label %.thread, label %28

28:                                               ; preds = %25
  %29 = getelementptr inbounds nuw i8, ptr %0, i64 136
  %30 = load i64, ptr %29, align 8, !tbaa !78
  %31 = getelementptr inbounds nuw i8, ptr %0, i64 144
  %32 = getelementptr inbounds nuw i8, ptr %0, i64 152
  store i64 %30, ptr %32, align 8, !tbaa !31
  %33 = load i64, ptr %31, align 8, !tbaa !31
  %34 = sub nsw i64 %30, %33
  %35 = getelementptr inbounds nuw i8, ptr %0, i64 128
  %36 = load i64, ptr %35, align 8, !tbaa !32
  %.not50 = icmp slt i64 %34, %36
  br i1 %.not50, label %.thread, label %37

37:                                               ; preds = %28
  call void @llvm.memset.p0.i64(ptr noundef nonnull align 1 dereferenceable(32) %7, i8 0, i64 32, i1 false)
  %38 = getelementptr inbounds nuw i8, ptr %0, i64 120
  %.val = load i64, ptr %38, align 4
  %39 = call ptr @av_ts_make_time_string2(ptr noundef nonnull %7, i64 noundef %33, i64 %.val) #13
  call void @llvm.lifetime.start.p0(i64 128, ptr nonnull %6) #13
  %40 = call i32 (ptr, i64, ptr, ...) @snprintf(ptr noundef nonnull dereferenceable(1) %6, i64 noundef 128, ptr noundef nonnull @.str.42, ptr noundef nonnull @.str.37) #13
  %41 = getelementptr inbounds nuw i8, ptr %1, i64 312
  %42 = call i32 @av_dict_set(ptr noundef nonnull %41, ptr noundef nonnull %6, ptr noundef %39, i32 noundef 0) #13
  call void @llvm.lifetime.end.p0(i64 128, ptr nonnull %6) #13
  call void @llvm.memset.p0.i64(ptr noundef nonnull align 1 dereferenceable(32) %8, i8 0, i64 32, i1 false)
  %43 = load i64, ptr %31, align 8, !tbaa !31
  %.val53 = load i64, ptr %38, align 4
  %44 = call ptr @av_ts_make_time_string2(ptr noundef nonnull %8, i64 noundef %43, i64 %.val53) #13
  call void (ptr, i32, ptr, ...) @av_log(ptr noundef nonnull %0, i32 noundef 32, ptr noundef nonnull @.str.38, ptr noundef %44) #13
  store i32 0, ptr %26, align 8, !tbaa !89
  br label %.thread

45:                                               ; preds = %22
  %46 = icmp eq i32 %23, 0
  %or.cond5 = or i1 %16, %46
  br i1 %or.cond5, label %.thread, label %47

47:                                               ; preds = %45
  %.not51 = icmp eq ptr %1, null
  %. = select i1 %.not51, ptr %0, ptr %1
  %.in = getelementptr inbounds nuw i8, ptr %., i64 136
  %48 = load i64, ptr %.in, align 8, !tbaa !31
  %49 = getelementptr inbounds nuw i8, ptr %0, i64 144
  %50 = getelementptr inbounds nuw i8, ptr %0, i64 152
  store i64 %48, ptr %50, align 8, !tbaa !31
  %51 = load i64, ptr %49, align 8, !tbaa !31
  %52 = sub nsw i64 %48, %51
  %53 = getelementptr inbounds nuw i8, ptr %0, i64 128
  %54 = load i64, ptr %53, align 8, !tbaa !32
  %.not52 = icmp slt i64 %52, %54
  br i1 %.not52, label %70, label %55

55:                                               ; preds = %47
  br i1 %.not51, label %65, label %56

56:                                               ; preds = %55
  call void @llvm.memset.p0.i64(ptr noundef nonnull align 1 dereferenceable(32) %9, i8 0, i64 32, i1 false)
  %57 = getelementptr inbounds nuw i8, ptr %0, i64 120
  %.val54 = load i64, ptr %57, align 4
  %58 = call ptr @av_ts_make_time_string2(ptr noundef nonnull %9, i64 noundef %48, i64 %.val54) #13
  call void @llvm.lifetime.start.p0(i64 128, ptr nonnull %5) #13
  %59 = call i32 (ptr, i64, ptr, ...) @snprintf(ptr noundef nonnull dereferenceable(1) %5, i64 noundef 128, ptr noundef nonnull @.str.42, ptr noundef nonnull @.str.39) #13
  %60 = getelementptr inbounds nuw i8, ptr %1, i64 312
  %61 = call i32 @av_dict_set(ptr noundef nonnull %60, ptr noundef nonnull %5, ptr noundef %58, i32 noundef 0) #13
  call void @llvm.lifetime.end.p0(i64 128, ptr nonnull %5) #13
  call void @llvm.memset.p0.i64(ptr noundef nonnull align 1 dereferenceable(32) %10, i8 0, i64 32, i1 false)
  %.val55 = load i64, ptr %57, align 4
  %62 = call ptr @av_ts_make_time_string2(ptr noundef nonnull %10, i64 noundef %52, i64 %.val55) #13
  call void @llvm.lifetime.start.p0(i64 128, ptr nonnull %4) #13
  %63 = call i32 (ptr, i64, ptr, ...) @snprintf(ptr noundef nonnull dereferenceable(1) %4, i64 noundef 128, ptr noundef nonnull @.str.42, ptr noundef nonnull @.str.40) #13
  %64 = call i32 @av_dict_set(ptr noundef nonnull %60, ptr noundef nonnull %4, ptr noundef %62, i32 noundef 0) #13
  call void @llvm.lifetime.end.p0(i64 128, ptr nonnull %4) #13
  %.pre = load i64, ptr %50, align 8, !tbaa !31
  br label %65

65:                                               ; preds = %56, %55
  %66 = phi i64 [ %.pre, %56 ], [ %48, %55 ]
  call void @llvm.memset.p0.i64(ptr noundef nonnull align 1 dereferenceable(32) %11, i8 0, i64 32, i1 false)
  %67 = getelementptr inbounds nuw i8, ptr %0, i64 120
  %.val56 = load i64, ptr %67, align 4
  %68 = call ptr @av_ts_make_time_string2(ptr noundef nonnull %11, i64 noundef %66, i64 %.val56) #13
  call void @llvm.memset.p0.i64(ptr noundef nonnull align 1 dereferenceable(32) %12, i8 0, i64 32, i1 false)
  %.val57 = load i64, ptr %67, align 4
  %69 = call ptr @av_ts_make_time_string2(ptr noundef nonnull %12, i64 noundef %52, i64 %.val57) #13
  call void (ptr, i32, ptr, ...) @av_log(ptr noundef nonnull %0, i32 noundef 32, ptr noundef nonnull @.str.41, ptr noundef %68, ptr noundef %69) #13
  br label %70

70:                                               ; preds = %65, %47
  store i32 0, ptr %13, align 8, !tbaa !30
  br label %.thread

.thread:                                          ; preds = %25, %37, %28, %70, %45
  ret void
}